target datalayout = "e-m:e-p270:32:32-p271:32:32-p272:64:64-i64:64-i128:128-f80:128-n8:16:32:64-S128"
target triple = "x86_64-pc-linux-gnu"

@progname = internal global ptr null, align 8
@sig = internal global i32 2, align 4
@pid_file = internal global [1024 x i8] zeroinitializer, align 16
@shutdown_mode = internal global i32 1, align 4
@.str.125 = private unnamed_addr constant [7 x i8] c" done\0A\00", align 1
@.str.142 = private unnamed_addr constant [46 x i8] c"%s: could not send stop signal (PID: %d): %m\0A\00", align 1
@.str.147 = private unnamed_addr constant [34 x i8] c"%s: PID file \22%s\22 does not exist\0A\00", align 1
@.str.148 = private unnamed_addr constant [20 x i8] c"Is server running?\0A\00", align 1
@.str.151 = private unnamed_addr constant [35 x i8] c"waiting for server to shut down...\00", align 1
@.str.152 = private unnamed_addr constant [9 x i8] c" failed\0A\00", align 1
@.str.153 = private unnamed_addr constant [31 x i8] c"%s: server does not shut down\0A\00", align 1
@.str.154 = private unnamed_addr constant [118 x i8] c"HINT: The \22-m fast\22 option immediately disconnects sessions rather than\0Awaiting for session-initiated disconnection.\0A\00", align 1
@.str.155 = private unnamed_addr constant [16 x i8] c"server stopped\0A\00", align 1
@.str.156 = private unnamed_addr constant [31 x i8] c"trying to start server anyway\0A\00", align 1
@.str.157 = private unnamed_addr constant [68 x i8] c"%s: cannot restart server; single-user server is running (PID: %d)\0A\00", align 1
@.str.158 = private unnamed_addr constant [56 x i8] c"Please terminate the single-user server and try again.\0A\00", align 1
@.str.159 = private unnamed_addr constant [51 x i8] c"%s: old server process (PID: %d) seems to be gone\0A\00", align 1
@.str.160 = private unnamed_addr constant [24 x i8] c"starting server anyway\0A\00", align 1

; Function Attrs: nounwind uwtable
define internal zeroext i1 @postmaster_is_alive(i32 noundef %0) #0 {
  %2 = alloca i1, align 1
  %3 = alloca i32, align 4
  store i32 %0, ptr %3, align 4
  %4 = load i32, ptr %3, align 4
  %5 = call i32 @getpid() #10
  %6 = icmp eq i32 %4, %5
  br i1 %6, label %7, label %8

7:                                                ; preds = %1
  store i1 false, ptr %2, align 1
  br label %19

8:                                                ; preds = %1
  %9 = load i32, ptr %3, align 4
  %10 = call i32 @getppid() #10
  %11 = icmp eq i32 %9, %10
  br i1 %11, label %12, label %13

12:                                               ; preds = %8
  store i1 false, ptr %2, align 1
  br label %19

13:                                               ; preds = %8
  %14 = load i32, ptr %3, align 4
  %15 = call i32 @kill(i32 noundef %14, i32 noundef 0) #10
  %16 = icmp eq i32 %15, 0
  br i1 %16, label %17, label %18

17:                                               ; preds = %13
  store i1 true, ptr %2, align 1
  br label %19

18:                                               ; preds = %13
  store i1 false, ptr %2, align 1
  br label %19

19:                                               ; preds = %18, %17, %12, %7
  %20 = load i1, ptr %2, align 1
  ret i1 %20
}

; Function Attrs: nounwind uwtable
define internal void @do_restart() #0 {
  %1 = alloca i32, align 4
  %2 = alloca i32, align 4
  call void @llvm.lifetime.start.p0(i64 4, ptr %1) #10
  %3 = call i32 @get_pgpid(i1 noundef zeroext false)
  store i32 %3, ptr %1, align 4
  %4 = load i32, ptr %1, align 4
  %5 = icmp eq i32 %4, 0
  br i1 %5, label %6, label %8

6:                                                ; preds = %0
  %7 = load ptr, ptr @progname, align 8
  call void (ptr, ...) @write_stderr(ptr noundef @.str.147, ptr noundef %7, ptr noundef @pid_file)
  call void (ptr, ...) @write_stderr(ptr noundef @.str.148)
  call void (ptr, ...) @write_stderr(ptr noundef @.str.156)
  call void @do_start()
  store i32 1, ptr %2, align 4
  br label %45

8:                                                ; preds = %0
  %9 = load i32, ptr %1, align 4
  %10 = icmp slt i32 %9, 0
  br i1 %10, label %11, label %20

11:                                               ; preds = %8
  %12 = load i32, ptr %1, align 4
  %13 = sub i32 0, %12
  store i32 %13, ptr %1, align 4
  %14 = load i32, ptr %1, align 4
  %15 = call zeroext i1 @postmaster_is_alive(i32 noundef %14)
  br i1 %15, label %16, label %19

16:                                               ; preds = %11
  %17 = load ptr, ptr @progname, align 8
  %18 = load i32, ptr %1, align 4
  call void (ptr, ...) @write_stderr(ptr noundef @.str.157, ptr noundef %17, i32 noundef %18)
  call void (ptr, ...) @write_stderr(ptr noundef @.str.158)
  call void @exit(i32 noundef 1) #12
  unreachable

19:                                               ; preds = %11
  br label %20

20:                                               ; preds = %19, %8
  br label %21

21:                                               ; preds = %20
  %22 = load i32, ptr %1, align 4
  %23 = call zeroext i1 @postmaster_is_alive(i32 noundef %22)
  br i1 %23, label %24, label %41

24:                                               ; preds = %21
  %25 = load i32, ptr %1, align 4
  %26 = load i32, ptr @sig, align 4
  %27 = call i32 @kill(i32 noundef %25, i32 noundef %26) #10
  %28 = icmp ne i32 %27, 0
  br i1 %28, label %29, label %32

29:                                               ; preds = %24
  %30 = load ptr, ptr @progname, align 8
  %31 = load i32, ptr %1, align 4
  call void (ptr, ...) @write_stderr(ptr noundef @.str.142, ptr noundef %30, i32 noundef %31)
  call void @exit(i32 noundef 1) #12
  unreachable

32:                                               ; preds = %24
  call void @print_msg(ptr noundef @.str.151)
  %33 = call zeroext i1 @wait_for_postmaster_stop()
  br i1 %33, label %40, label %34

34:                                               ; preds = %32
  call void @print_msg(ptr noundef @.str.152)
  %35 = load ptr, ptr @progname, align 8
  call void (ptr, ...) @write_stderr(ptr noundef @.str.153, ptr noundef %35)
  %36 = load i32, ptr @shutdown_mode, align 4
  %37 = icmp eq i32 %36, 0
  br i1 %37, label %38, label %39

38:                                               ; preds = %34
  call void (ptr, ...) @write_stderr(ptr noundef @.str.154)
  br label %39

39:                                               ; preds = %38, %34
  call void @exit(i32 noundef 1) #12
  unreachable

40:                                               ; preds = %32
  call void @print_msg(ptr noundef @.str.125)
  call void @print_msg(ptr noundef @.str.155)
  br label %44

41:                                               ; preds = %21
  %42 = load ptr, ptr @progname, align 8
  %43 = load i32, ptr %1, align 4
  call void (ptr, ...) @write_stderr(ptr noundef @.str.159, ptr noundef %42, i32 noundef %43)
  call void (ptr, ...) @write_stderr(ptr noundef @.str.160)
  br label %44

44:                                               ; preds = %41, %40
  call void @do_start()
  store i32 0, ptr %2, align 4
  br label %45

45:                                               ; preds = %44, %6
  call void @llvm.lifetime.end.p0(i64 4, ptr %1) #10
  %46 = load i32, ptr %2, align 4
  switch i32 %46, label %48 [
    i32 0, label %47
    i32 1, label %47
  ]

47:                                               ; preds = %45, %45
  ret void

48:                                               ; preds = %45
  unreachable
}