; Function Attrs: nounwind uwtable
define internal fastcc void @do_restart() unnamed_addr #5 {
  %1 = tail call fastcc i32 @get_pgpid(i1 noundef zeroext false)
  %2 = icmp eq i32 %1, 0
  br i1 %2, label %3, label %5

3:                                                ; preds = %0
  %4 = load ptr, ptr @progname, align 8
  tail call void (ptr, ...) @write_stderr(ptr noundef nonnull @.str.147, ptr noundef %4, ptr noundef nonnull @pid_file)
  tail call void (ptr, ...) @write_stderr(ptr noundef nonnull @.str.148)
  tail call void (ptr, ...) @write_stderr(ptr noundef nonnull @.str.156)
  br label %print_msg.exit15

5:                                                ; preds = %0
  %6 = icmp slt i32 %1, 0
  br i1 %6, label %7, label %postmaster_is_alive.exit.thread

7:                                                ; preds = %5
  %8 = sub i32 0, %1
  %9 = tail call i32 @getpid() #17
  %10 = icmp eq i32 %9, %8
  br i1 %10, label %postmaster_is_alive.exit.thread, label %11

11:                                               ; preds = %7
  %12 = tail call i32 @getppid() #17
  %13 = icmp eq i32 %12, %8
  br i1 %13, label %postmaster_is_alive.exit.thread, label %postmaster_is_alive.exit

postmaster_is_alive.exit:                         ; preds = %11
  %14 = tail call i32 @kill(i32 noundef range(i32 1, -2147483647) %8, i32 noundef 0) #17
  %15 = icmp eq i32 %14, 0
  br i1 %15, label %16, label %postmaster_is_alive.exit.thread

16:                                               ; preds = %postmaster_is_alive.exit
  %17 = load ptr, ptr @progname, align 8
  tail call void (ptr, ...) @write_stderr(ptr noundef nonnull @.str.157, ptr noundef %17, i32 noundef %8)
  tail call void (ptr, ...) @write_stderr(ptr noundef nonnull @.str.158)
  tail call void @exit(i32 noundef 1) #20
  unreachable

postmaster_is_alive.exit.thread:                  ; preds = %11, %7, %5, %postmaster_is_alive.exit
  %.0 = phi i32 [ %8, %postmaster_is_alive.exit ], [ %1, %5 ], [ %8, %7 ], [ %8, %11 ]
  %18 = tail call i32 @getpid() #17
  %19 = icmp eq i32 %.0, %18
  br i1 %19, label %postmaster_is_alive.exit11.thread, label %20

20:                                               ; preds = %postmaster_is_alive.exit.thread
  %21 = tail call i32 @getppid() #17
  %22 = icmp eq i32 %.0, %21
  br i1 %22, label %postmaster_is_alive.exit11.thread, label %postmaster_is_alive.exit11

postmaster_is_alive.exit11:                       ; preds = %20
  %23 = tail call i32 @kill(i32 noundef range(i32 1, -2147483647) %.0, i32 noundef 0) #17
  %24 = icmp eq i32 %23, 0
  br i1 %24, label %25, label %postmaster_is_alive.exit11.thread

25:                                               ; preds = %postmaster_is_alive.exit11
  %26 = load i32, ptr @sig, align 4
  %27 = tail call i32 @kill(i32 noundef %.0, i32 noundef %26) #17
  %.not = icmp eq i32 %27, 0
  br i1 %.not, label %30, label %28

28:                                               ; preds = %25
  %29 = load ptr, ptr @progname, align 8
  tail call void (ptr, ...) @write_stderr(ptr noundef nonnull @.str.142, ptr noundef %29, i32 noundef %.0)
  tail call void @exit(i32 noundef 1) #20
  unreachable

30:                                               ; preds = %25
  %.b1.i = load i1, ptr @silent_mode, align 1
  br i1 %.b1.i, label %print_msg.exit, label %31

31:                                               ; preds = %30
  %32 = load ptr, ptr @stdout, align 8
  %33 = tail call i64 @fwrite(ptr nonnull @.str.151, i64 34, i64 1, ptr %32)
  %34 = load ptr, ptr @stdout, align 8
  %35 = tail call i32 @fflush(ptr noundef %34)
  br label %print_msg.exit

print_msg.exit:                                   ; preds = %30, %31
  %36 = tail call fastcc zeroext i1 @wait_for_postmaster_stop()
  br i1 %36, label %43, label %37

37:                                               ; preds = %print_msg.exit
  tail call fastcc void @print_msg(ptr noundef nonnull @.str.152)
  %38 = load ptr, ptr @progname, align 8
  tail call void (ptr, ...) @write_stderr(ptr noundef nonnull @.str.153, ptr noundef %38)
  %39 = load i32, ptr @shutdown_mode, align 4
  %40 = icmp eq i32 %39, 0
  br i1 %40, label %41, label %42

41:                                               ; preds = %37
  tail call void (ptr, ...) @write_stderr(ptr noundef nonnull @.str.154)
  br label %42

42:                                               ; preds = %41, %37
  tail call void @exit(i32 noundef 1) #20
  unreachable

43:                                               ; preds = %print_msg.exit
  %.b1.i12 = load i1, ptr @silent_mode, align 1
  br i1 %.b1.i12, label %print_msg.exit15, label %print_msg.exit13

print_msg.exit13:                                 ; preds = %43
  %44 = load ptr, ptr @stdout, align 8
  %45 = tail call i64 @fwrite(ptr nonnull @.str.125, i64 6, i64 1, ptr %44)
  %46 = load ptr, ptr @stdout, align 8
  %47 = tail call i32 @fflush(ptr noundef %46)
  %.b1.i14.pr = load i1, ptr @silent_mode, align 1
  br i1 %.b1.i14.pr, label %print_msg.exit15, label %48

48:                                               ; preds = %print_msg.exit13
  %49 = load ptr, ptr @stdout, align 8
  %50 = tail call i64 @fwrite(ptr nonnull @.str.155, i64 15, i64 1, ptr %49)
  %51 = load ptr, ptr @stdout, align 8
  %52 = tail call i32 @fflush(ptr noundef %51)
  br label %print_msg.exit15

postmaster_is_alive.exit11.thread:                ; preds = %20, %postmaster_is_alive.exit.thread, %postmaster_is_alive.exit11
  %53 = load ptr, ptr @progname, align 8
  tail call void (ptr, ...) @write_stderr(ptr noundef nonnull @.str.159, ptr noundef %53, i32 noundef %.0)
  tail call void (ptr, ...) @write_stderr(ptr noundef nonnull @.str.160)
  br label %print_msg.exit15

print_msg.exit15:                                 ; preds = %postmaster_is_alive.exit11.thread, %print_msg.exit13, %48, %43, %3
  tail call fastcc void @do_start()
  ret void
}